target datalayout = "e-m:e-p270:32:32-p271:32:32-p272:64:64-i64:64-i128:128-f80:128-n8:16:32:64-S128"
target triple = "x86_64-pc-linux-gnu"

%struct.Curl_cftype = type { ptr, i32, i32, ptr, ptr, ptr, ptr, ptr, ptr, ptr, ptr, ptr, ptr, ptr, ptr, ptr }
%struct.Curl_cfilter = type { ptr, ptr, ptr, ptr, i32, i8 }
%struct.cf_call_data = type { ptr }
%struct.cf_h2_proxy_ctx = type { ptr, %struct.cf_call_data, %struct.bufq, %struct.bufq, %struct.tunnel_stream, i32, i32, i8 }
%struct.bufq = type { ptr, ptr, ptr, ptr, i64, i64, i64, i32 }
%struct.tunnel_stream = type { ptr, %struct.bufq, %struct.bufq, ptr, i32, i32, i32, i8 }
%struct.Curl_easy = type { i32, i64, i64, ptr, %struct.Curl_llist_node, %struct.Curl_llist_node, i32, i32, %struct.Curl_message, %struct.easy_pollset, %struct.Names, ptr, ptr, ptr, %struct.SingleRequest, %struct.UserDefined, ptr, ptr, %struct.Progress, %struct.UrlState, ptr, %struct.PureInfo, %struct.curl_tlssessioninfo }
%struct.Curl_llist_node = type { ptr, ptr, ptr, ptr }
%struct.Curl_message = type { %struct.Curl_llist_node, %struct.CURLMsg }
%struct.CURLMsg = type { i32, ptr, %union.anon }
%union.anon = type { ptr }
%struct.easy_pollset = type { [5 x i32], i32, [5 x i8] }
%struct.Names = type { ptr, i32 }
%struct.SingleRequest = type <{ i64, i64, i64, i64, %struct.curltime, i32, i32, i32, i32, i64, i32, i32, i32, i32, ptr, ptr, %struct.bufq, i64, i64, ptr, ptr, %union.anon.0, ptr, i8, i32, [3 x i8] }>
%struct.curltime = type { i64, i32 }
%union.anon.0 = type { ptr }
%struct.UserDefined = type <{ ptr, ptr, ptr, ptr, ptr, ptr, i16, [6 x i8], i64, i64, i64, ptr, ptr, i64, i16, i16, [4 x i8], ptr, ptr, ptr, ptr, ptr, ptr, ptr, ptr, ptr, ptr, ptr, ptr, ptr, ptr, ptr, ptr, ptr, ptr, ptr, ptr, ptr, ptr, ptr, i32, i32, i32, i32, i32, [4 x i8], i64, i64, i64, i64, i64, i64, i64, i64, ptr, ptr, %struct.curl_mimepart, ptr, ptr, i64, i8, i8, i8, [5 x i8], %struct.ssl_config_data, %struct.ssl_config_data, ptr, i16, i8, i8, [4 x i8], %struct.ssl_general_config, i32, i32, i32, [4 x i8], ptr, ptr, i8, [7 x i8], i64, i8, i8, i8, i8, i32, ptr, ptr, ptr, i8, i8, [2 x i8], i32, [63 x ptr], [8 x ptr], i32, i32, i32, [4 x i8], ptr, ptr, ptr, ptr, ptr, i8, [3 x i8], i32, i32, i32, i64, %struct.Curl_data_priority, ptr, ptr, i64, ptr, i64, ptr, ptr, ptr, i8, [3 x i8], i32, i8, i8, i64, [6 x i8] }>
%struct.curl_mimepart = type { ptr, ptr, i32, i32, ptr, ptr, ptr, ptr, ptr, ptr, ptr, ptr, ptr, ptr, ptr, i64, %struct.mime_state, ptr, %struct.mime_encoder_state, i64 }
%struct.mime_state = type { i32, ptr, i64 }
%struct.mime_encoder_state = type { i64, i64, i64, [256 x i8] }
%struct.ssl_config_data = type { %struct.ssl_primary_config, i64, ptr, ptr, ptr, ptr, ptr, ptr, ptr, i16 }
%struct.ssl_primary_config = type { ptr, ptr, ptr, ptr, ptr, ptr, ptr, ptr, ptr, ptr, ptr, ptr, i8, i32, i8, i8 }
%struct.ssl_general_config = type { i64, i32 }
%struct.Curl_data_priority = type { ptr, ptr, i32, i8 }
%struct.Progress = type { i64, %struct.pgrs_dir, %struct.pgrs_dir, i64, i64, i32, i32, i64, i64, i64, i64, i64, i64, i64, i64, i64, %struct.curltime, %struct.curltime, %struct.curltime, %struct.curltime, [6 x i64], [6 x %struct.curltime], i32, i8 }
%struct.pgrs_dir = type { i64, i64, i64, %struct.pgrs_measure }
%struct.pgrs_measure = type { %struct.curltime, i64 }
%struct.UrlState = type { %struct.curltime, i64, i64, %struct.dynbuf, ptr, i64, ptr, i32, i32, i32, ptr, i64, i32, i64, i32, ptr, %struct.digestdata, %struct.digestdata, %struct.auth, %struct.auth, %struct.Curl_async, ptr, %struct.curltime, %struct.Curl_tree, %struct.Curl_llist, [15 x %struct.time_node], ptr, ptr, i64, i64, %struct.Curl_data_priority, ptr, ptr, ptr, %struct.urlpieces, ptr, ptr, ptr, ptr, ptr, i64, %struct.dynbuf, %struct.Curl_llist, [2 x %struct.curl_header], ptr, i32, ptr, ptr, %struct.store_netrc, %struct.dynamically_allocated_data, i8, i8, i8, i8, i32 }
%struct.digestdata = type { ptr, ptr, ptr, ptr, ptr, ptr, i32, i8, i8 }
%struct.auth = type { i64, i64, i64, i8 }
%struct.Curl_async = type { ptr, ptr, ptr, ptr, i32, i32, i8 }
%struct.Curl_tree = type { ptr, ptr, ptr, ptr, %struct.curltime, ptr }
%struct.time_node = type { %struct.Curl_llist_node, %struct.curltime, i32 }
%struct.urlpieces = type { ptr, ptr, ptr, ptr, ptr, ptr, ptr, ptr }
%struct.dynbuf = type { ptr, i64, i64, i64 }
%struct.Curl_llist = type { ptr, ptr, ptr, i64 }
%struct.curl_header = type { ptr, ptr, i64, i64, i32, ptr }
%struct.store_netrc = type { %struct.dynbuf, ptr, i8 }
%struct.dynamically_allocated_data = type { ptr, ptr, ptr, ptr, ptr, ptr, ptr, ptr, ptr, ptr, ptr, ptr, ptr }
%struct.PureInfo = type { i32, i32, i32, i64, i64, i64, i64, i64, ptr, ptr, i64, i32, %struct.ip_quadruple, i32, ptr, i32, %struct.curl_certinfo, i32, i8 }
%struct.ip_quadruple = type { [46 x i8], [46 x i8], i32, i32 }
%struct.curl_certinfo = type { i32, ptr }
%struct.curl_tlssessioninfo = type { i32, ptr }
%struct.curl_trc_feat = type { ptr, i32 }

@.str.29 = private unnamed_addr constant [43 x i8] c"[%d] proxy_h2_on_stream_close, %s (err %d)\00", align 1

; Function Attrs: nounwind uwtable
define internal i32 @proxy_h2_on_stream_close(ptr noundef %0, i32 noundef %1, i32 noundef %2, ptr noundef %3) #0 {
  %5 = alloca i32, align 4
  %6 = alloca ptr, align 8
  %7 = alloca i32, align 4
  %8 = alloca i32, align 4
  %9 = alloca ptr, align 8
  %10 = alloca ptr, align 8
  %11 = alloca ptr, align 8
  %12 = alloca ptr, align 8
  %13 = alloca i32, align 4
  store ptr %0, ptr %6, align 8, !tbaa !131
  store i32 %1, ptr %7, align 4, !tbaa !22
  store i32 %2, ptr %8, align 4, !tbaa !22
  store ptr %3, ptr %9, align 8, !tbaa !116
  call void @llvm.lifetime.start.p0(i64 8, ptr %10) #6
  %14 = load ptr, ptr %9, align 8, !tbaa !116
  store ptr %14, ptr %10, align 8, !tbaa !4
  call void @llvm.lifetime.start.p0(i64 8, ptr %11) #6
  %15 = load ptr, ptr %10, align 8, !tbaa !4
  %16 = getelementptr inbounds nuw %struct.Curl_cfilter, ptr %15, i32 0, i32 2
  %17 = load ptr, ptr %16, align 8, !tbaa !11
  store ptr %17, ptr %11, align 8, !tbaa !16
  call void @llvm.lifetime.start.p0(i64 8, ptr %12) #6
  %18 = load ptr, ptr %10, align 8, !tbaa !4
  %19 = icmp ne ptr %18, null
  br i1 %19, label %20, label %27

20:                                               ; preds = %4
  %21 = load ptr, ptr %10, align 8, !tbaa !4
  %22 = getelementptr inbounds nuw %struct.Curl_cfilter, ptr %21, i32 0, i32 2
  %23 = load ptr, ptr %22, align 8, !tbaa !11
  %24 = getelementptr inbounds nuw %struct.cf_h2_proxy_ctx, ptr %23, i32 0, i32 1
  %25 = getelementptr inbounds nuw %struct.cf_call_data, ptr %24, i32 0, i32 0
  %26 = load ptr, ptr %25, align 8, !tbaa !29
  br label %28

27:                                               ; preds = %4
  br label %28

28:                                               ; preds = %27, %20
  %29 = phi ptr [ %26, %20 ], [ null, %27 ]
  store ptr %29, ptr %12, align 8, !tbaa !9
  %30 = load i32, ptr %7, align 4, !tbaa !22
  %31 = load ptr, ptr %11, align 8, !tbaa !16
  %32 = getelementptr inbounds nuw %struct.cf_h2_proxy_ctx, ptr %31, i32 0, i32 4
  %33 = getelementptr inbounds nuw %struct.tunnel_stream, ptr %32, i32 0, i32 4
  %34 = load i32, ptr %33, align 8, !tbaa !48
  %35 = icmp ne i32 %30, %34
  br i1 %35, label %36, label %37

36:                                               ; preds = %28
  store i32 0, ptr %5, align 4
  store i32 1, ptr %13, align 4
  br label %94

37:                                               ; preds = %28
  br label %38

38:                                               ; preds = %37
  %39 = load ptr, ptr %12, align 8, !tbaa !9
  %40 = icmp ne ptr %39, null
  br i1 %40, label %41, label %81

41:                                               ; preds = %38
  %42 = load ptr, ptr %12, align 8, !tbaa !9
  %43 = getelementptr inbounds nuw %struct.Curl_easy, ptr %42, i32 0, i32 15
  %44 = getelementptr inbounds nuw %struct.UserDefined, ptr %43, i32 0, i32 124
  %45 = load i64, ptr %44, align 2
  %46 = lshr i64 %45, 27
  %47 = and i64 %46, 1
  %48 = trunc i64 %47 to i32
  %49 = icmp ne i32 %48, 0
  br i1 %49, label %50, label %81

50:                                               ; preds = %41
  %51 = load ptr, ptr %12, align 8, !tbaa !9
  %52 = getelementptr inbounds nuw %struct.Curl_easy, ptr %51, i32 0, i32 19
  %53 = getelementptr inbounds nuw %struct.UrlState, ptr %52, i32 0, i32 47
  %54 = load ptr, ptr %53, align 8, !tbaa !49
  %55 = icmp ne ptr %54, null
  br i1 %55, label %56, label %64

56:                                               ; preds = %50
  %57 = load ptr, ptr %12, align 8, !tbaa !9
  %58 = getelementptr inbounds nuw %struct.Curl_easy, ptr %57, i32 0, i32 19
  %59 = getelementptr inbounds nuw %struct.UrlState, ptr %58, i32 0, i32 47
  %60 = load ptr, ptr %59, align 8, !tbaa !49
  %61 = getelementptr inbounds nuw %struct.curl_trc_feat, ptr %60, i32 0, i32 1
  %62 = load i32, ptr %61, align 8, !tbaa !111
  %63 = icmp sge i32 %62, 1
  br i1 %63, label %64, label %81

64:                                               ; preds = %56, %50
  %65 = load ptr, ptr %10, align 8, !tbaa !4
  %66 = icmp ne ptr %65, null
  br i1 %66, label %67, label %81

67:                                               ; preds = %64
  %68 = load ptr, ptr %10, align 8, !tbaa !4
  %69 = getelementptr inbounds nuw %struct.Curl_cfilter, ptr %68, i32 0, i32 0
  %70 = load ptr, ptr %69, align 8, !tbaa !43
  %71 = getelementptr inbounds nuw %struct.Curl_cftype, ptr %70, i32 0, i32 2
  %72 = load i32, ptr %71, align 4, !tbaa !113
  %73 = icmp sge i32 %72, 1
  br i1 %73, label %74, label %81

74:                                               ; preds = %67
  %75 = load ptr, ptr %12, align 8, !tbaa !9
  %76 = load ptr, ptr %10, align 8, !tbaa !4
  %77 = load i32, ptr %7, align 4, !tbaa !22
  %78 = load i32, ptr %8, align 4, !tbaa !22
  %79 = call ptr @nghttp2_http2_strerror(i32 noundef %78)
  %80 = load i32, ptr %8, align 4, !tbaa !22
  call void (ptr, ptr, ptr, ...) @Curl_trc_cf_infof(ptr noundef %75, ptr noundef %76, ptr noundef @.str.29, i32 noundef %77, ptr noundef %79, i32 noundef %80)
  br label %81

81:                                               ; preds = %74, %67, %64, %56, %41, %38
  br label %82

82:                                               ; preds = %81
  br label %83

83:                                               ; preds = %82
  %84 = load ptr, ptr %11, align 8, !tbaa !16
  %85 = getelementptr inbounds nuw %struct.cf_h2_proxy_ctx, ptr %84, i32 0, i32 4
  %86 = getelementptr inbounds nuw %struct.tunnel_stream, ptr %85, i32 0, i32 7
  %87 = load i8, ptr %86, align 4
  %88 = and i8 %87, -3
  %89 = or i8 %88, 2
  store i8 %89, ptr %86, align 4
  %90 = load i32, ptr %8, align 4, !tbaa !22
  %91 = load ptr, ptr %11, align 8, !tbaa !16
  %92 = getelementptr inbounds nuw %struct.cf_h2_proxy_ctx, ptr %91, i32 0, i32 4
  %93 = getelementptr inbounds nuw %struct.tunnel_stream, ptr %92, i32 0, i32 5
  store i32 %90, ptr %93, align 4, !tbaa !139
  store i32 0, ptr %5, align 4
  store i32 1, ptr %13, align 4
  br label %94

94:                                               ; preds = %83, %36
  call void @llvm.lifetime.end.p0(i64 8, ptr %12) #6
  call void @llvm.lifetime.end.p0(i64 8, ptr %11) #6
  call void @llvm.lifetime.end.p0(i64 8, ptr %10) #6
  %95 = load i32, ptr %5, align 4
  ret i32 %95
}