; Function Attrs: nounwind uwtable
define internal noundef i32 @proxy_h2_on_stream_close(ptr readnone captures(none) %0, i32 noundef %1, i32 noundef %2, ptr noundef %3) #0 {
  %5 = getelementptr inbounds nuw i8, ptr %3, i64 16
  %6 = load ptr, ptr %5, align 8, !tbaa !4
  %7 = getelementptr inbounds nuw i8, ptr %6, i64 8
  %8 = load ptr, ptr %7, align 8, !tbaa !34
  %9 = getelementptr inbounds nuw i8, ptr %6, i64 288
  %10 = load i32, ptr %9, align 8, !tbaa !133
  %.not = icmp eq i32 %1, %10
  br i1 %.not, label %11, label %35

11:                                               ; preds = %4
  %.not23 = icmp eq ptr %8, null
  br i1 %.not23, label %30, label %12

12:                                               ; preds = %11
  %13 = getelementptr inbounds nuw i8, ptr %8, i64 2562
  %14 = load i64, ptr %13, align 2
  %15 = and i64 %14, 134217728
  %.not24 = icmp eq i64 %15, 0
  br i1 %.not24, label %30, label %16

16:                                               ; preds = %12
  %17 = getelementptr inbounds nuw i8, ptr %8, i64 4712
  %18 = load ptr, ptr %17, align 8, !tbaa !108
  %.not25 = icmp eq ptr %18, null
  br i1 %.not25, label %23, label %19

19:                                               ; preds = %16
  %20 = getelementptr inbounds nuw i8, ptr %18, i64 8
  %21 = load i32, ptr %20, align 8, !tbaa !109
  %22 = icmp sgt i32 %21, 0
  br i1 %22, label %23, label %30

23:                                               ; preds = %16, %19
  %24 = load ptr, ptr %3, align 8, !tbaa !111
  %25 = getelementptr inbounds nuw i8, ptr %24, i64 12
  %26 = load i32, ptr %25, align 4, !tbaa !112
  %27 = icmp sgt i32 %26, 0
  br i1 %27, label %28, label %30

28:                                               ; preds = %23
  %29 = tail call ptr @nghttp2_http2_strerror(i32 noundef %2) #7
  tail call void (ptr, ptr, ptr, ...) @Curl_trc_cf_infof(ptr noundef nonnull %8, ptr noundef nonnull %3, ptr noundef nonnull @.str.29, i32 noundef %1, ptr noundef %29, i32 noundef %2) #7
  br label %30

30:                                               ; preds = %28, %23, %19, %12, %11
  %31 = getelementptr inbounds nuw i8, ptr %6, i64 300
  %32 = load i8, ptr %31, align 4
  %33 = or i8 %32, 2
  store i8 %33, ptr %31, align 4
  %34 = getelementptr inbounds nuw i8, ptr %6, i64 292
  store i32 %2, ptr %34, align 4, !tbaa !137
  br label %35

35:                                               ; preds = %4, %30
  ret i32 0
}